	.file	"stdlib.c"
	.text
.Ltext0:
	.type	freelist_insert, @function
freelist_insert:
.LFB0:
	.file 1 "../../lib/user/stdlib.c"
	.loc 1 16 0
	.cfi_startproc
.LVL0:
	pushl	%ebp
	.cfi_def_cfa_offset 8
	.cfi_offset 5, -8
	movl	%esp, %ebp
	.cfi_def_cfa_register 5
	.loc 1 17 0
	movl	8(%eax), %ecx
	movl	%ecx, 8(%edx)
	.loc 1 18 0
	movl	%eax, 12(%edx)
	.loc 1 19 0
	movl	8(%eax), %ecx
	testl	%ecx, %ecx
	je	.L2
	.loc 1 20 0
	movl	%edx, 12(%ecx)
.L2:
	.loc 1 22 0
	movl	%edx, 8(%eax)
	.loc 1 23 0
	popl	%ebp
	.cfi_restore 5
	.cfi_def_cfa 4, 4
	ret
	.cfi_endproc
.LFE0:
	.size	freelist_insert, .-freelist_insert
	.type	freelist_remove, @function
freelist_remove:
.LFB1:
	.loc 1 25 0
	.cfi_startproc
.LVL1:
	pushl	%ebp
	.cfi_def_cfa_offset 8
	.cfi_offset 5, -8
	movl	%esp, %ebp
	.cfi_def_cfa_register 5
	.loc 1 26 0
	movl	12(%eax), %edx
	testl	%edx, %edx
	je	.L5
	.loc 1 27 0
	movl	8(%eax), %ecx
	movl	%ecx, 8(%edx)
.L5:
	.loc 1 29 0
	movl	8(%eax), %edx
	testl	%edx, %edx
	je	.L6
	.loc 1 30 0
	movl	12(%eax), %ecx
	movl	%ecx, 12(%edx)
.L6:
	.loc 1 32 0
	cmpl	%eax, freelist
	je	.L9
.LVL2:
.L4:
	.loc 1 35 0
	popl	%ebp
	.cfi_remember_state
	.cfi_restore 5
	.cfi_def_cfa 4, 4
	ret
.LVL3:
.L9:
	.cfi_restore_state
	.loc 1 33 0
	movl	8(%eax), %eax
.LVL4:
	movl	%eax, freelist
	.loc 1 35 0
	jmp	.L4
	.cfi_endproc
.LFE1:
	.size	freelist_remove, .-freelist_remove
	.globl	malloc
	.type	malloc, @function
malloc:
.LFB2:
	.loc 1 37 0
	.cfi_startproc
.LVL5:
	pushl	%ebp
	.cfi_def_cfa_offset 8
	.cfi_offset 5, -8
	movl	%esp, %ebp
	.cfi_def_cfa_register 5
	pushl	%edi
	pushl	%esi
	pushl	%ebx
	subl	$28, %esp
	.cfi_offset 7, -12
	.cfi_offset 6, -16
	.cfi_offset 3, -20
	movl	8(%ebp), %esi
.LVL6:
	.loc 1 41 0
	testl	%esi, %esi
	je	.L23
	.loc 1 45 0
	movl	freelist, %ebx
.LVL7:
	testl	%ebx, %ebx
	jne	.L15
.LVL8:
	.loc 1 77 0
	leal	16(%esi), %eax
	movl	%eax, (%esp)
	call	sbrk
.LVL9:
	movl	%eax, %edi
.LVL10:
	.loc 1 78 0
	cmpl	$-1, %eax
	je	.L33
	.loc 1 81 0
	movb	$0, (%edi)
	.loc 1 82 0
	movl	%esi, 4(%edi)
.LVL11:
.L21:
	.loc 1 86 0
	movl	$0, 12(%edi)
	.loc 1 87 0
	movl	$0, 8(%edi)
	.loc 1 88 0
	movl	%edi, freelist
	jmp	.L19
.LVL12:
.L35:
	.loc 1 52 0
	addl	%ebx, %edx
.LVL13:
	.loc 1 53 0
	movb	$1, (%edx)
	.loc 1 54 0
	movl	$-16, %eax
	subl	%esi, %eax
	addl	4(%ebx), %eax
	movl	%eax, 4(%edx)
	.loc 1 55 0
	movl	%esi, 4(%ebx)
	.loc 1 56 0
	movl	%ebx, %eax
	call	freelist_insert
.LVL14:
	jmp	.L14
.LVL15:
.L13:
	.loc 1 45 0 discriminator 2
	movl	8(%ebx), %eax
.LVL16:
	testl	%eax, %eax
	je	.L34
.LVL17:
	.loc 1 45 0 is_stmt 0
	movl	%eax, %ebx
.LVL18:
.L15:
	.loc 1 47 0 is_stmt 1
	movzbl	(%ebx), %edx
	testb	%dl, %dl
	je	.L13
	.loc 1 47 0 is_stmt 0 discriminator 1
	movl	4(%ebx), %eax
	cmpl	%esi, %eax
	jb	.L13
	.loc 1 50 0 is_stmt 1
	leal	16(%esi), %edx
	cmpl	%edx, %eax
	ja	.L35
.LVL19:
.L14:
	.loc 1 59 0
	movb	$0, (%ebx)
	.loc 1 61 0
	leal	16(%ebx), %eax
	jmp	.L10
.LVL20:
.L34:
	.loc 1 66 0
	testl	%ebx, %ebx
	je	.L16
	.loc 1 66 0 is_stmt 0 discriminator 1
	testb	%dl, %dl
	jne	.L36
.LVL21:
	.loc 1 77 0 is_stmt 1
	leal	16(%esi), %eax
	movl	%eax, (%esp)
	call	sbrk
.LVL22:
	movl	%eax, %edi
.LVL23:
	.loc 1 78 0
	cmpl	$-1, %eax
	je	.L37
	.loc 1 81 0
	movb	$0, (%edi)
	.loc 1 82 0
	movl	%esi, 4(%edi)
	.loc 1 84 0
	movl	%edi, %edx
	movl	%ebx, %eax
.LVL24:
	call	freelist_insert
.LVL25:
.L19:
	.loc 1 90 0
	leal	16(%edi), %eax
.LVL26:
.L10:
	.loc 1 92 0
	addl	$28, %esp
	popl	%ebx
	.cfi_remember_state
	.cfi_restore 3
	popl	%esi
	.cfi_restore 6
	popl	%edi
	.cfi_restore 7
	popl	%ebp
	.cfi_restore 5
	.cfi_def_cfa 4, 4
	ret
.LVL27:
.L36:
	.cfi_restore_state
	.loc 1 68 0
	movl	%esi, %eax
.LVL28:
	subl	4(%ebx), %eax
	movl	%eax, (%esp)
.LVL29:
	call	sbrk
.LVL30:
	cmpl	$-1, %eax
	je	.L25
	.loc 1 71 0
	movb	$0, (%ebx)
	.loc 1 72 0
	movl	%esi, 4(%ebx)
	.loc 1 73 0
	leal	16(%ebx), %eax
	jmp	.L10
.LVL31:
.L23:
	.loc 1 42 0
	movl	$0, %eax
	jmp	.L10
.LVL32:
.L25:
	.loc 1 69 0
	movl	$0, %eax
	jmp	.L10
.LVL33:
.L33:
	.loc 1 79 0
	movl	$0, %eax
.LVL34:
	jmp	.L10
.LVL35:
.L37:
	movl	$0, %eax
.LVL36:
	jmp	.L10
.LVL37:
.L38:
	movl	$0, %eax
.LVL38:
	jmp	.L10
.LVL39:
.L16:
	.loc 1 77 0
	leal	16(%esi), %eax
	movl	%eax, (%esp)
	call	sbrk
.LVL40:
	movl	%eax, %edi
.LVL41:
	.loc 1 78 0
	cmpl	$-1, %eax
	je	.L38
	.loc 1 81 0
	movb	$0, (%edi)
	.loc 1 82 0
	movl	%esi, 4(%edi)
	jmp	.L21
	.cfi_endproc
.LFE2:
	.size	malloc, .-malloc
	.globl	free
	.type	free, @function
free:
.LFB3:
	.loc 1 94 0
	.cfi_startproc
.LVL42:
	pushl	%ebp
	.cfi_def_cfa_offset 8
	.cfi_offset 5, -8
	movl	%esp, %ebp
	.cfi_def_cfa_register 5
	pushl	%ebx
	.cfi_offset 3, -12
	movl	8(%ebp), %ebx
.LVL43:
	.loc 1 96 0
	testl	%ebx, %ebx
	je	.L39
	.loc 1 99 0
	movb	$1, -16(%ebx)
	.loc 1 100 0
	movl	-8(%ebx), %eax
	testl	%eax, %eax
	je	.L41
	.loc 1 100 0 is_stmt 0 discriminator 1
	cmpb	$0, (%eax)
	jne	.L43
.L41:
	.loc 1 105 0 is_stmt 1
	movl	-4(%ebx), %eax
	testl	%eax, %eax
	je	.L39
	.loc 1 105 0 is_stmt 0 discriminator 1
	cmpb	$0, (%eax)
	jne	.L44
.LVL44:
.L39:
	.loc 1 110 0 is_stmt 1
	popl	%ebx
	.cfi_remember_state
	.cfi_restore 3
.LVL45:
	popl	%ebp
	.cfi_restore 5
	.cfi_def_cfa 4, 4
	.p2align 4,,1
	ret
.LVL46:
.L43:
	.cfi_restore_state
	.loc 1 102 0
	movl	-12(%ebx), %ecx
	movl	4(%eax), %edx
	leal	16(%ecx,%edx), %edx
	movl	%edx, -12(%ebx)
	.loc 1 103 0
	call	freelist_remove
.LVL47:
	jmp	.L41
.LVL48:
.L44:
	.loc 1 107 0
	movl	-12(%ebx), %ecx
	leal	16(%ecx), %edx
	addl	%edx, 4(%eax)
	.loc 1 95 0
	leal	-16(%ebx), %eax
	.loc 1 108 0
	call	freelist_remove
.LVL49:
	jmp	.L39
	.cfi_endproc
.LFE3:
	.size	free, .-free
	.globl	calloc
	.type	calloc, @function
calloc:
.LFB4:
	.loc 1 112 0
	.cfi_startproc
.LVL50:
	pushl	%ebp
	.cfi_def_cfa_offset 8
	.cfi_offset 5, -8
	movl	%esp, %ebp
	.cfi_def_cfa_register 5
	subl	$40, %esp
	movl	%ebx, -12(%ebp)
	movl	%esi, -8(%ebp)
	movl	%edi, -4(%ebp)
	.cfi_offset 3, -20
	.cfi_offset 6, -16
	.cfi_offset 7, -12
	.loc 1 113 0
	movl	12(%ebp), %ebx
	imull	8(%ebp), %ebx
	movl	%ebx, (%esp)
	call	malloc
.LVL51:
	movl	%eax, %edx
.LVL52:
	.loc 1 114 0
	testl	%eax, %eax
	je	.L45
	.loc 1 115 0
	movl	%ebx, %esi
	movl	%eax, %edi
	cmpl	$8, %ebx
	jnb	.L53
.LVL53:
.L47:
	testl	$4, %esi
	je	.L49
	movl	$0, (%edi)
	addl	$4, %edi
.L49:
	testl	$2, %esi
	je	.L50
	movw	$0, (%edi)
	addl	$2, %edi
.L50:
	testl	$1, %esi
	je	.L45
	movb	$0, (%edi)
.L45:
	.loc 1 118 0
	movl	%edx, %eax
	movl	-12(%ebp), %ebx
	movl	-8(%ebp), %esi
	movl	-4(%ebp), %edi
	movl	%ebp, %esp
	.cfi_remember_state
	.cfi_restore 7
	.cfi_restore 6
	.cfi_restore 3
	.cfi_def_cfa_register 4
	popl	%ebp
	.cfi_restore 5
	.cfi_def_cfa_offset 4
	ret
.LVL54:
.L53:
	.cfi_restore_state
	.loc 1 115 0
	testb	$4, %al
	jne	.L54
.LVL55:
.L48:
	movl	%esi, %ecx
	shrl	$2, %ecx
	movl	$0, %eax
.LVL56:
	rep stosl
	andl	$3, %esi
	jmp	.L47
.LVL57:
.L54:
	movl	$0, (%eax)
.LVL58:
	leal	4(%eax), %edi
	leal	-4(%ebx), %esi
	jmp	.L48
	.cfi_endproc
.LFE4:
	.size	calloc, .-calloc
	.globl	realloc
	.type	realloc, @function
realloc:
.LFB5:
	.loc 1 120 0
	.cfi_startproc
.LVL59:
	pushl	%ebp
	.cfi_def_cfa_offset 8
	.cfi_offset 5, -8
	movl	%esp, %ebp
	.cfi_def_cfa_register 5
	subl	$40, %esp
	movl	%ebx, -12(%ebp)
	movl	%esi, -8(%ebp)
	movl	%edi, -4(%ebp)
	.cfi_offset 3, -20
	.cfi_offset 6, -16
	.cfi_offset 7, -12
	movl	12(%ebp), %esi
	.loc 1 122 0
	cmpl	$0, 8(%ebp)
	je	.L62
	.loc 1 124 0
	testl	%esi, %esi
	je	.L63
	.loc 1 129 0
	movl	%esi, (%esp)
	call	malloc
.LVL60:
	movl	%eax, %ebx
.LVL61:
	.loc 1 130 0
	testl	%eax, %eax
	je	.L55
	.loc 1 134 0
	movl	%esi, %ecx
	movl	%eax, %edi
	movl	8(%ebp), %eax
.LVL62:
	cmpl	$8, %esi
	jnb	.L64
.LVL63:
.L59:
	movl	%eax, %esi
	rep movsb
	.loc 1 135 0
	movl	8(%ebp), %eax
	movl	%eax, (%esp)
	call	free
.LVL64:
.L55:
	.loc 1 138 0
	movl	%ebx, %eax
	movl	-12(%ebp), %ebx
	movl	-8(%ebp), %esi
	movl	-4(%ebp), %edi
	movl	%ebp, %esp
	.cfi_remember_state
	.cfi_restore 7
	.cfi_restore 6
	.cfi_restore 3
	.cfi_def_cfa_register 4
	popl	%ebp
	.cfi_restore 5
	.cfi_def_cfa_offset 4
	ret
.LVL65:
.L62:
	.cfi_restore_state
	.loc 1 123 0
	movl	%esi, (%esp)
	call	malloc
.LVL66:
	movl	%eax, %ebx
	jmp	.L55
.L63:
	.loc 1 125 0
	movl	8(%ebp), %eax
	movl	%eax, (%esp)
	call	free
.LVL67:
	.loc 1 126 0
	movl	$0, %ebx
	jmp	.L55
.LVL68:
.L64:
	.loc 1 134 0
	testb	$4, %bl
	je	.L59
	movl	(%eax), %eax
	movl	%eax, (%ebx)
.LVL69:
	leal	4(%ebx), %edi
	movl	8(%ebp), %eax
	leal	4(%eax), %eax
	leal	-4(%esi), %ecx
	jmp	.L59
	.cfi_endproc
.LFE5:
	.size	realloc, .-realloc
	.local	freelist
	.comm	freelist,4,4
.Letext0:
	.file 2 "../../lib/stddef.h"
	.file 3 "../../lib/stdint.h"
	.file 4 "../../lib/user/syscall.h"
	.section	.note.GNU-stack,"",@progbits
